; Function Attrs: mustprogress nofree norecurse nosync nounwind willreturn memory(read, inaccessiblemem: none) uwtable
define noundef i64 @_ZNK5arrow12SparseTensor4sizeEv(ptr noundef nonnull readonly align 8 captures(none) dereferenceable(104) %0) local_unnamed_addr #7 align 2 {
  %2 = getelementptr inbounds nuw i8, ptr %0, i64 40
  %3 = load ptr, ptr %2, align 8, !tbaa !3
  %4 = getelementptr inbounds nuw i8, ptr %0, i64 48
  %5 = load ptr, ptr %4, align 8, !tbaa !3
  %.not5.i = icmp eq ptr %3, %5
  br i1 %.not5.i, label %_ZSt10accumulateIN9__gnu_cxx17__normal_iteratorIPKlSt6vectorIlSaIlEEEExSt10multipliesIlEET0_T_SB_SA_T1_.exit, label %.lr.ph.i

.lr.ph.i:                                         ; preds = %1, %.lr.ph.i
  %.07.i = phi i64 [ %7, %.lr.ph.i ], [ 1, %1 ]
  %.sroa.02.06.i = phi ptr [ %8, %.lr.ph.i ], [ %3, %1 ]
  %6 = load i64, ptr %.sroa.02.06.i, align 8, !tbaa !8
  %7 = mul nsw i64 %6, %.07.i
  %8 = getelementptr inbounds nuw i8, ptr %.sroa.02.06.i, i64 8
  %.not.i = icmp eq ptr %8, %5
  br i1 %.not.i, label %_ZSt10accumulateIN9__gnu_cxx17__normal_iteratorIPKlSt6vectorIlSaIlEEEExSt10multipliesIlEET0_T_SB_SA_T1_.exit, label %.lr.ph.i, !llvm.loop !318

_ZSt10accumulateIN9__gnu_cxx17__normal_iteratorIPKlSt6vectorIlSaIlEEEExSt10multipliesIlEET0_T_SB_SA_T1_.exit: ; preds = %.lr.ph.i, %1
  %.0.lcssa.i = phi i64 [ 1, %1 ], [ %7, %.lr.ph.i ]
  ret i64 %.0.lcssa.i
}